; Function Attrs: nounwind uwtable
define dso_local ptr @activeDefragHfield(ptr noundef %0) #0 {
  %2 = tail call ptr @mstrGetAllocPtr(ptr noundef nonnull @mstrFieldKind, ptr noundef %0) #10
  %3 = tail call i32 @je_get_defrag_hint(ptr noundef %2) #10
  %.not.i = icmp eq i32 %3, 0
  br i1 %.not.i, label %4, label %7

4:                                                ; preds = %1
  %5 = load i64, ptr getelementptr inbounds nuw (i8, ptr @server, i64 2592), align 8, !tbaa !5
  %6 = add nsw i64 %5, 1
  store i64 %6, ptr getelementptr inbounds nuw (i8, ptr @server, i64 2592), align 8, !tbaa !5
  br label %activeDefragAlloc.exit

7:                                                ; preds = %1
  %8 = tail call i64 @je_malloc_usable_size(ptr noundef %2) #10
  %9 = tail call noalias ptr @zmalloc_no_tcache(i64 noundef %8) #10
  tail call void @llvm.memcpy.p0.p0.i64(ptr align 1 %9, ptr align 1 %2, i64 %8, i1 false)
  tail call void @zfree_no_tcache(ptr noundef %2) #10
  %10 = load i64, ptr getelementptr inbounds nuw (i8, ptr @server, i64 2584), align 8, !tbaa !38
  %11 = add nsw i64 %10, 1
  store i64 %11, ptr getelementptr inbounds nuw (i8, ptr @server, i64 2584), align 8, !tbaa !38
  br label %activeDefragAlloc.exit

activeDefragAlloc.exit:                           ; preds = %4, %7
  %.0.i = phi ptr [ %9, %7 ], [ null, %4 ]
  %.not = icmp eq ptr %.0.i, null
  %12 = ptrtoint ptr %0 to i64
  %13 = ptrtoint ptr %2 to i64
  %14 = sub i64 %12, %13
  %15 = getelementptr inbounds nuw i8, ptr %.0.i, i64 %14
  %.0 = select i1 %.not, ptr null, ptr %15
  ret ptr %.0
}